Certificate:
    Data:
        Version: 3 (0x2)
        Serial Number:
            d0:eb:e2:7c:19:de:87:9b
    Signature Algorithm: sha256WithRSAEncryption
        Issuer: C=AU, ST=Some-State, O=Internet Widgits Pty Ltd, CN=DScan test CA
        Validity
            Not Before: Jul  4 17:20:59 2017 GMT
            Not After : Jul  3 17:20:59 2020 GMT
        Subject: C=AU, ST=Some-State, O=Internet Widgits Pty Ltd, CN=DScan test CA
        Subject Public Key Info:
            Public Key Algorithm: rsaEncryption
                Public-Key: (2048 bit)
                Modulus:
                    00:bb:c3:9b:41:7f:01:43:1a:fe:41:b4:cc:95:1b:
                    e0:4c:88:e0:a2:62:67:5f:bf:9e:7b:19:1e:18:94:
                    94:93:5a:dc:59:19:1d:33:e8:2e:82:72:ce:eb:37:
                    2a:5a:a1:69:cf:54:c0:0a:81:92:b2:f6:a3:fc:6a:
                    e6:c2:5b:f4:9c:34:90:62:6d:a8:fa:fe:e0:11:24:
                    59:41:b4:5c:cf:6a:97:e3:d0:16:90:51:31:1a:09:
                    04:1f:da:e6:99:49:ba:ad:e0:cb:93:b4:0f:32:fe:
                    9a:f8:9e:44:6c:9a:b9:1b:fc:42:dd:60:b9:c7:f9:
                    48:a3:52:d0:72:62:d7:24:fd:4e:5a:28:d9:fa:ed:
                    fd:f9:61:24:e7:6b:ee:1c:62:3b:4d:57:33:1c:c1:
                    82:7e:7d:e6:9a:35:fe:7d:69:e7:4c:c3:b7:d0:80:
                    e3:ae:58:7d:bb:a9:43:53:57:97:05:7d:a4:60:4f:
                    76:40:dc:09:ff:77:31:88:1c:08:fa:9a:58:fe:9e:
                    14:e5:4a:59:fb:82:20:4e:a8:62:cd:c3:6f:9e:33:
                    e2:16:e5:d2:65:1d:b3:72:c9:a8:b8:13:2e:ee:3a:
                    a9:12:53:e1:1d:86:aa:26:e0:cf:ea:24:61:b4:12:
                    dc:cb:60:dc:8c:f9:57:1d:83:7b:22:8f:e0:80:d6:
                    2a:cd
                Exponent: 65537 (0x10001)
        X509v3 extensions:
            X509v3 Subject Key Identifier: 
                2D:AE:53:BF:55:58:53:13:9C:55:68:98:2A:1C:C9:84:B0:43:02:D1
            X509v3 Authority Key Identifier: 
                keyid:2D:AE:53:BF:55:58:53:13:9C:55:68:98:2A:1C:C9:84:B0:43:02:D1

            X509v3 Basic Constraints: 
                CA:TRUE
    Signature Algorithm: sha256WithRSAEncryption
         85:e8:8e:5a:77:27:54:ce:db:4d:9f:e0:8a:22:33:9a:95:87:
         77:54:94:2b:52:86:75:84:e4:1e:41:69:c3:e8:85:c8:a7:0b:
         eb:be:25:e2:81:00:c1:d0:28:20:3e:b9:a8:5c:8d:a0:40:d0:
         6c:24:af:ea:55:bf:74:23:3b:89:d6:7a:0d:3f:59:e6:80:92:
         05:e4:e8:f1:e2:db:74:57:b9:38:6d:b9:07:96:47:78:03:f4:
         b2:10:b6:fb:f2:fa:75:97:60:e8:84:4b:3d:f6:71:9a:fb:59:
         0e:55:59:34:c4:27:21:32:53:8d:f6:dd:20:9c:8e:0e:ff:c0:
         57:34:05:84:a3:31:d2:16:81:21:40:77:53:ba:e6:68:22:b9:
         2b:0d:a4:db:44:71:a8:b0:12:ae:24:c6:e5:34:5c:48:dd:4f:
         18:7b:9d:39:22:85:e1:d1:74:d3:28:d3:0f:24:c6:a5:f7:39:
         eb:58:62:13:f3:1d:87:20:3a:95:1a:95:be:89:1f:8e:aa:98:
         39:29:84:c9:ca:48:97:7b:6a:d1:3a:0d:13:27:1e:f9:31:be:
         1c:0f:c1:5b:86:dd:35:f3:6f:81:0e:27:b6:34:c2:7d:29:af:
         e1:bf:69:cb:7a:9d:4d:d2:98:e8:b1:fe:bf:38:08:e8:15:83:
         dd:e1:89:b5
-----BEGIN CERTIFICATE-----
MIIDjTCCAnWgAwIBAgIJANDr4nwZ3oebMA0GCSqGSIb3DQEBCwUAMF0xCzAJBgNV
BAYTAkFVMRMwEQYDVQQIDApTb21lLVN0YXRlMSEwHwYDVQQKDBhJbnRlcm5ldCBX
aWRnaXRzIFB0eSBMdGQxFjAUBgNVBAMMDURTY2FuIHRlc3QgQ0EwHhcNMTcwNzA0
MTcyMDU5WhcNMjAwNzAzMTcyMDU5WjBdMQswCQYDVQQGEwJBVTETMBEGA1UECAwK
U29tZS1TdGF0ZTEhMB8GA1UECgwYSW50ZXJuZXQgV2lkZ2l0cyBQdHkgTHRkMRYw
FAYDVQQDDA1EU2NhbiB0ZXN0IENBMIIBIjANBgkqhkiG9w0BAQEFAAOCAQ8AMIIB
CgKCAQEAu8ObQX8BQxr+QbTMlRvgTIjgomJnX7+eexkeGJSUk1rcWRkdM+gugnLO
6zcqWqFpz1TACoGSsvaj/Grmwlv0nDSQYm2o+v7gESRZQbRcz2qX49AWkFExGgkE
H9rmmUm6reDLk7QPMv6a+J5EbJq5G/xC3WC5x/lIo1LQcmLXJP1OWijZ+u39+WEk
52vuHGI7TVczHMGCfn3mmjX+fWnnTMO30IDjrlh9u6lDU1eXBX2kYE92QNwJ/3cx
iBwI+ppY/p4U5UpZ+4IgTqhizcNvnjPiFuXSZR2zcsmouBMu7jqpElPhHYaqJuDP
6iRhtBLcy2DcjPlXHYN7Io/ggNYqzQIDAQABo1AwTjAdBgNVHQ4EFgQULa5Tv1VY
UxOcVWiYKhzJhLBDAtEwHwYDVR0jBBgwFoAULa5Tv1VYUxOcVWiYKhzJhLBDAtEw
DAYDVR0TBAUwAwEB/zANBgkqhkiG9w0BAQsFAAOCAQEAheiOWncnVM7bTZ/giiIz
mpWHd1SUK1KGdYTkHkFpw+iFyKcL674l4oEAwdAoID65qFyNoEDQbCSv6lW/dCM7
idZ6DT9Z5oCSBeTo8eLbdFe5OG25B5ZHeAP0shC2+/L6dZdg6IRLPfZxmvtZDlVZ
NMQnITJTjfbdIJyODv/AVzQFhKMx0haBIUB3U7rmaCK5Kw2k20RxqLASriTG5TRc
SN1PGHudOSKF4dF00yjTDyTGpfc561hiE/MdhyA6lRqVvokfjqqYOSmEycpIl3tq
0ToNEyce+TG+HA/BW4bdNfNvgQ4ntjTCfSmv4b9py3qdTdKY6LH+vzgI6BWD3eGJ
tQ==
-----END CERTIFICATE-----
