Certificate:
    Data:
        Version: 3 (0x2)
        Serial Number:
            d0:eb:e2:7c:19:de:87:9c
    Signature Algorithm: sha256WithRSAEncryption
        Issuer: C=AU, ST=Some-State, O=Internet Widgits Pty Ltd, CN=DScan test CA
        Validity
            Not Before: Jul  4 17:21:48 2017 GMT
            Not After : Jul  4 17:21:48 2018 GMT
        Subject: C=AU, ST=Some-State, O=Internet Widgits Pty Ltd, CN=DScan test cert
        Subject Public Key Info:
            Public Key Algorithm: rsaEncryption
                Public-Key: (2048 bit)
                Modulus:
                    00:a0:89:fb:fb:e3:b8:c9:6a:f4:64:7d:94:1d:a1:
                    bc:81:51:af:de:0a:28:d6:3b:04:97:ef:42:b4:86:
                    7c:5e:e7:c3:3b:fd:65:93:eb:56:60:00:8a:18:62:
                    fe:81:4a:63:c4:46:79:d4:89:05:eb:24:e0:0c:58:
                    3b:52:62:02:72:f9:ac:0a:9c:a3:5e:5b:08:ce:1f:
                    1c:1c:e3:56:47:97:7f:bb:ee:93:06:88:4f:8b:a5:
                    cb:9a:d2:0a:a5:1f:af:2d:aa:0e:b3:16:3f:fb:a5:
                    2e:b4:6b:45:f2:26:9c:b2:97:8d:72:14:f9:bc:04:
                    1d:cd:1c:f1:16:b9:df:6c:34:ff:09:9d:28:3f:eb:
                    6e:da:3d:3b:2a:46:c7:57:c0:d8:0c:71:a3:91:3f:
                    ef:45:2a:c8:24:22:b3:28:17:c0:d6:63:f9:f2:c1:
                    f9:51:95:a3:6d:98:a3:8c:1d:fd:40:97:aa:87:59:
                    1b:66:43:46:fc:b0:01:3a:2d:68:e4:7f:49:d2:33:
                    1a:ab:17:5c:2d:56:a9:80:f3:63:b4:18:e6:cf:20:
                    c4:db:7e:4d:c0:1c:99:1e:79:84:15:30:94:d3:ea:
                    3e:91:2b:79:7e:79:f3:e5:6d:cf:8c:72:76:40:ca:
                    07:38:7b:5c:1f:f0:7d:13:a7:c4:cf:fa:c3:6f:9c:
                    e1:6d
                Exponent: 65537 (0x10001)
        X509v3 extensions:
            X509v3 Basic Constraints: 
                CA:FALSE
            Netscape Comment: 
                OpenSSL Generated Certificate
            X509v3 Subject Key Identifier: 
                EA:D9:97:13:6F:20:FA:2A:78:19:DE:E7:40:E1:B6:B3:BB:B8:5C:5C
            X509v3 Authority Key Identifier: 
                keyid:2D:AE:53:BF:55:58:53:13:9C:55:68:98:2A:1C:C9:84:B0:43:02:D1

    Signature Algorithm: sha256WithRSAEncryption
         85:d8:b2:02:03:e1:88:b0:6f:37:9d:27:48:88:3e:c1:d4:43:
         36:2f:2b:3c:36:31:3e:6a:92:c9:34:59:6d:9e:50:1a:2d:8b:
         52:23:9e:e0:75:3f:f2:b9:bf:a5:3c:f8:b2:9a:07:1d:13:61:
         a9:cf:6c:1d:49:40:33:79:db:79:70:db:1c:9b:bc:56:c6:30:
         69:35:b3:b1:1e:a7:3e:74:ab:59:d3:3c:64:89:9b:e3:b0:ab:
         61:77:0d:16:dc:f6:55:cb:53:57:0f:7c:03:99:63:24:20:78:
         69:30:af:b5:28:4b:79:c5:c6:dd:b7:53:51:85:ac:2d:df:eb:
         f5:1e:b9:13:bf:b4:5f:36:4b:54:15:61:f6:79:95:92:e1:18:
         b2:70:5a:d2:01:96:44:84:03:cf:0c:cd:f7:bc:f3:5d:9c:38:
         1c:f9:d1:17:d1:69:7c:52:1d:20:fb:51:f5:36:59:09:1f:37:
         7d:43:9e:a8:f9:0d:a8:72:d9:76:34:d9:6a:c5:03:0e:26:65:
         4b:0f:0c:93:62:d1:82:2c:f2:80:2f:b4:9b:fd:f3:35:e6:c2:
         66:6f:b3:ca:27:59:2a:f8:21:6c:b1:e1:98:2f:da:58:97:a0:
         b8:ef:b8:bb:9a:23:a2:82:ec:cd:59:bb:af:3d:54:c6:35:96:
         d6:9d:44:33
-----BEGIN CERTIFICATE-----
MIIDujCCAqKgAwIBAgIJANDr4nwZ3oecMA0GCSqGSIb3DQEBCwUAMF0xCzAJBgNV
BAYTAkFVMRMwEQYDVQQIDApTb21lLVN0YXRlMSEwHwYDVQQKDBhJbnRlcm5ldCBX
aWRnaXRzIFB0eSBMdGQxFjAUBgNVBAMMDURTY2FuIHRlc3QgQ0EwHhcNMTcwNzA0
MTcyMTQ4WhcNMTgwNzA0MTcyMTQ4WjBfMQswCQYDVQQGEwJBVTETMBEGA1UECAwK
U29tZS1TdGF0ZTEhMB8GA1UECgwYSW50ZXJuZXQgV2lkZ2l0cyBQdHkgTHRkMRgw
FgYDVQQDDA9EU2NhbiB0ZXN0IGNlcnQwggEiMA0GCSqGSIb3DQEBAQUAA4IBDwAw
ggEKAoIBAQCgifv747jJavRkfZQdobyBUa/eCijWOwSX70K0hnxe58M7/WWT61Zg
AIoYYv6BSmPERnnUiQXrJOAMWDtSYgJy+awKnKNeWwjOHxwc41ZHl3+77pMGiE+L
pcua0gqlH68tqg6zFj/7pS60a0XyJpyyl41yFPm8BB3NHPEWud9sNP8JnSg/627a
PTsqRsdXwNgMcaORP+9FKsgkIrMoF8DWY/nywflRlaNtmKOMHf1Al6qHWRtmQ0b8
sAE6LWjkf0nSMxqrF1wtVqmA82O0GObPIMTbfk3AHJkeeYQVMJTT6j6RK3l+efPl
bc+McnZAygc4e1wf8H0Tp8TP+sNvnOFtAgMBAAGjezB5MAkGA1UdEwQCMAAwLAYJ
YIZIAYb4QgENBB8WHU9wZW5TU0wgR2VuZXJhdGVkIENlcnRpZmljYXRlMB0GA1Ud
DgQWBBTq2ZcTbyD6KngZ3udA4bazu7hcXDAfBgNVHSMEGDAWgBQtrlO/VVhTE5xV
aJgqHMmEsEMC0TANBgkqhkiG9w0BAQsFAAOCAQEAhdiyAgPhiLBvN50nSIg+wdRD
Ni8rPDYxPmqSyTRZbZ5QGi2LUiOe4HU/8rm/pTz4spoHHRNhqc9sHUlAM3nbeXDb
HJu8VsYwaTWzsR6nPnSrWdM8ZImb47CrYXcNFtz2VctTVw98A5ljJCB4aTCvtShL
ecXG3bdTUYWsLd/r9R65E7+0XzZLVBVh9nmVkuEYsnBa0gGWRIQDzwzN97zzXZw4
HPnRF9FpfFIdIPtR9TZZCR83fUOeqPkNqHLZdjTZasUDDiZlSw8Mk2LRgizygC+0
m/3zNebCZm+zyidZKvghbLHhmC/aWJeguO+4u5ojooLszVm7rz1UxjWW1p1EMw==
-----END CERTIFICATE-----
